TN:
SF:/home/giangnguyentbk/workspace/itc-platform/sw/itc-common/inc/itcFileSystem.h
FN:20,_ZN11ItcPlatform8INTERNAL10FileSystemD0Ev
FNDA:10,_ZN11ItcPlatform8INTERNAL10FileSystemD0Ev
FN:20,_ZN11ItcPlatform8INTERNAL10FileSystemD2Ev
FNDA:0,_ZN11ItcPlatform8INTERNAL10FileSystemD2Ev
DA:20,10
DA:20,0
DA:35,10
end_of_record
SF:/home/giangnguyentbk/workspace/itc-platform/sw/itc-common/src/itcFileSystem.cc
FN:49,_ZN11ItcPlatform8INTERNAL10FileSystem11getInstanceEv
FNDA:10,_ZN11ItcPlatform8INTERNAL10FileSystem11getInstanceEv
FN:59,_ZN11ItcPlatform8INTERNAL10FileSystem10createPathERKNSt10filesystem7__cxx114pathENS2_5permsEmNS0_12FileSystemIf8PathTypeE
FNDA:4,_ZN11ItcPlatform8INTERNAL10FileSystem10createPathERKNSt10filesystem7__cxx114pathENS2_5permsEmNS0_12FileSystemIf8PathTypeE
FN:125,_ZN11ItcPlatform8INTERNAL10FileSystem10removePathERKNSt10filesystem7__cxx114pathE
FNDA:4,_ZN11ItcPlatform8INTERNAL10FileSystem10removePathERKNSt10filesystem7__cxx114pathE
FN:147,_ZN11ItcPlatform8INTERNAL10FileSystem6existsERKNSt10filesystem7__cxx114pathE
FNDA:12,_ZN11ItcPlatform8INTERNAL10FileSystem6existsERKNSt10filesystem7__cxx114pathE
FN:162,_ZN11ItcPlatform8INTERNAL10FileSystem12isAccessibleERKNSt10filesystem7__cxx114pathE
FNDA:2,_ZN11ItcPlatform8INTERNAL10FileSystem12isAccessibleERKNSt10filesystem7__cxx114pathE
DA:49,10
DA:51,10
DA:52,10
DA:54,10
DA:56,20
DA:57,10
DA:59,4
DA:61,4
DA:62,4
DA:63,4
DA:65,4
DA:67,2
DA:70,2
DA:71,2
DA:73,2
DA:74,0
DA:76,0
DA:82,2
DA:83,2
DA:85,0
DA:86,0
DA:89,2
DA:91,0
DA:92,0
DA:94,0
DA:95,0
DA:97,0
DA:99,2
DA:100,2
DA:101,13
DA:103,11
DA:104,11
DA:106,7
DA:107,7
DA:108,7
DA:110,0
DA:111,0
DA:114,11
DA:116,4
DA:118,0
DA:119,0
DA:120,0
DA:122,2
DA:125,4
DA:127,4
DA:129,4
DA:131,4
DA:133,3
DA:134,1
DA:136,1
DA:139,1
DA:141,1
DA:142,1
DA:143,1
DA:147,12
DA:149,12
DA:151,12
DA:153,8
DA:155,0
DA:157,0
DA:158,0
DA:162,2
DA:164,4
DA:165,4
DA:167,1
DA:170,2
end_of_record
SF:/home/giangnguyentbk/workspace/itc-platform/sw/itc-common/if/itcFileSystemIf.h
DA:98,10
DA:99,10
end_of_record
TN:
SF:/home/giangnguyentbk/workspace/itc-platform/sw/itc-common/src/itcMutex.cc
FN:12,_ZN11ItcPlatform8INTERNAL20getTimeDiffInNanoSecE8timespecS1_
FNDA:1,_ZN11ItcPlatform8INTERNAL20getTimeDiffInNanoSecE8timespecS1_
DA:12,1
DA:14,1
DA:15,1
DA:17,0
DA:20,1
DA:22,1
end_of_record
TN:
SF:/home/giangnguyentbk/workspace/itc-platform/sw/itc-common/src/itcThreadManager.cc
FN:44,_ZN11ItcPlatform8INTERNAL13ThreadManager11getInstanceEv
FNDA:15,_ZN11ItcPlatform8INTERNAL13ThreadManager11getInstanceEv
FN:54,_ZN11ItcPlatform8INTERNAL13ThreadManager5resetEv
FNDA:15,_ZN11ItcPlatform8INTERNAL13ThreadManager5resetEv
FN:65,_ZN11ItcPlatform8INTERNAL13ThreadManager19setThreadAttributesEiii
FNDA:3,_ZN11ItcPlatform8INTERNAL13ThreadManager19setThreadAttributesEiii
FN:90,_ZN11ItcPlatform8INTERNAL13ThreadManager9addThreadERKNS0_4TaskEbRSt10shared_ptrINS0_6SignalEE
FNDA:1,_ZN11ItcPlatform8INTERNAL13ThreadManager9addThreadERKNS0_4TaskEbRSt10shared_ptrINS0_6SignalEE
FN:98,_ZN11ItcPlatform8INTERNAL13ThreadManager15startAllThreadsEv
FNDA:4,_ZN11ItcPlatform8INTERNAL13ThreadManager15startAllThreadsEv
FN:140,_ZN11ItcPlatform8INTERNAL13ThreadManager19terminateAllThreadsEv
FNDA:16,_ZN11ItcPlatform8INTERNAL13ThreadManager19terminateAllThreadsEv
FN:171,_ZN11ItcPlatform8INTERNAL13ThreadManager21checkSchedulingParamsEiii
FNDA:6,_ZN11ItcPlatform8INTERNAL13ThreadManager21checkSchedulingParamsEiii
FN:183,_ZN11ItcPlatform8INTERNAL13ThreadManager23configureAndStartThreadEPFPvS2_ES2_Pmii
FNDA:8,_ZN11ItcPlatform8INTERNAL13ThreadManager23configureAndStartThreadEPFPvS2_ES2_Pmii
DA:44,15
DA:46,15
DA:47,15
DA:49,15
DA:51,30
DA:52,15
DA:54,15
DA:56,30
DA:57,15
DA:58,30
DA:59,30
DA:60,15
DA:61,15
DA:62,15
DA:63,15
DA:65,3
DA:67,3
DA:69,1
DA:70,1
DA:71,2
DA:72,3
DA:76,2
DA:77,2
DA:83,1
DA:84,1
DA:85,1
DA:90,1
DA:92,2
DA:93,1
DA:94,2
DA:95,1
DA:98,4
DA:100,4
DA:101,8
DA:102,8
DA:104,6
DA:106,6
DA:107,6
DA:108,1
DA:109,1
DA:110,1
DA:111,1
DA:114,15
DA:115,5
DA:116,5
DA:117,5
DA:118,0
DA:119,0
DA:120,0
DA:123,5
DA:124,15
DA:125,15
DA:126,5
DA:127,1
DA:129,1
DA:130,1
DA:131,1
DA:133,4
DA:134,4
DA:135,6
DA:136,8
DA:137,4
DA:140,16
DA:142,16
DA:143,32
DA:144,20
DA:146,6
DA:148,9
DA:149,3
DA:150,0
DA:151,0
DA:152,0
DA:153,0
DA:156,9
DA:157,3
DA:158,2
DA:159,2
DA:160,2
DA:161,2
DA:164,1
DA:165,1
DA:167,32
DA:168,16
DA:171,6
DA:173,12
DA:174,12
DA:175,6
DA:176,3
DA:177,3
DA:178,3
DA:183,8
DA:185,16
DA:186,8
DA:192,8
DA:193,8
DA:194,8
DA:195,0
DA:196,0
DA:197,0
DA:199,8
DA:200,8
DA:201,0
DA:202,0
DA:203,0
DA:205,8
DA:206,8
DA:207,8
DA:208,8
DA:209,1
DA:210,1
DA:211,1
DA:213,7
DA:214,7
DA:215,0
DA:216,0
DA:217,0
DA:220,7
DA:221,7
DA:222,1
DA:223,1
DA:224,1
DA:227,8
end_of_record
SF:/home/giangnguyentbk/workspace/itc-platform/sw/itc-common/inc/itcThreadManager.h
FN:32,_ZN11ItcPlatform8INTERNAL13ThreadManagerD0Ev
FNDA:15,_ZN11ItcPlatform8INTERNAL13ThreadManagerD0Ev
FN:32,_ZN11ItcPlatform8INTERNAL13ThreadManagerD2Ev
FNDA:15,_ZN11ItcPlatform8INTERNAL13ThreadManagerD2Ev
FN:49,_ZN11ItcPlatform8INTERNAL13ThreadManagerC2Ev
FNDA:15,_ZN11ItcPlatform8INTERNAL13ThreadManagerC2Ev
DA:32,15
DA:36,15
DA:32,15
DA:33,15
DA:34,15
DA:35,15
DA:36,15
DA:49,15
DA:50,15
DA:51,45
DA:52,15
DA:53,15
end_of_record
SF:/home/giangnguyentbk/workspace/itc-platform/sw/itc-common/if/itcThreadManagerIf.h
FN:55,_ZN11ItcPlatform8INTERNAL6Signal20calculateExpiredDateEj
FNDA:5,_ZN11ItcPlatform8INTERNAL6Signal20calculateExpiredDateEj
FN:153,_ZN11ItcPlatform8INTERNAL4TaskD0Ev
FNDA:0,_ZN11ItcPlatform8INTERNAL4TaskD0Ev
FN:153,_ZN11ItcPlatform8INTERNAL4TaskD2Ev
FNDA:0,_ZN11ItcPlatform8INTERNAL4TaskD2Ev
FN:169,_ZN11ItcPlatform8INTERNAL6ThreadC2ERKNS0_4TaskEbRSt10shared_ptrINS0_6SignalEE
FNDA:1,_ZN11ItcPlatform8INTERNAL6ThreadC2ERKNS0_4TaskEbRSt10shared_ptrINS0_6SignalEE
FN:174,_ZN11ItcPlatform8INTERNAL6ThreadD0Ev
FNDA:0,_ZN11ItcPlatform8INTERNAL6ThreadD0Ev
FN:174,_ZN11ItcPlatform8INTERNAL6ThreadD2Ev
FNDA:7,_ZN11ItcPlatform8INTERNAL6ThreadD2Ev
FN:181,_ZN11ItcPlatform8INTERNAL6ThreadC2EOS1_
FNDA:0,_ZN11ItcPlatform8INTERNAL6ThreadC2EOS1_
FN:205,_ZN11ItcPlatform8INTERNAL6Thread5resetEv
FNDA:0,_ZN11ItcPlatform8INTERNAL6Thread5resetEv
DA:55,5
DA:57,10
DA:58,10
DA:59,5
DA:60,5
DA:61,5
DA:63,0
DA:64,0
DA:66,5
DA:152,0
DA:153,0
DA:153,0
DA:153,7
DA:155,1
DA:158,0
DA:169,1
DA:170,1
DA:171,1
DA:172,1
DA:173,1
DA:174,0
DA:177,0
DA:174,7
DA:175,7
DA:176,7
DA:177,7
DA:181,0
DA:182,0
DA:183,0
DA:185,0
DA:186,0
DA:187,0
DA:188,0
DA:189,0
DA:190,0
DA:192,0
DA:205,0
DA:207,0
DA:209,0
DA:210,0
DA:212,0
DA:213,0
DA:214,0
DA:215,0
DA:216,0
DA:217,0
DA:224,15
DA:282,15
end_of_record
TN:
SF:/home/giangnguyentbk/workspace/itc-platform/sw/itc-common/inc/itcTransportLSocket.h
FN:48,_ZN11ItcPlatform8INTERNAL19ItcTransportLSocketD0Ev
FNDA:18,_ZN11ItcPlatform8INTERNAL19ItcTransportLSocketD0Ev
FN:48,_ZN11ItcPlatform8INTERNAL19ItcTransportLSocketD2Ev
FNDA:0,_ZN11ItcPlatform8INTERNAL19ItcTransportLSocketD2Ev
DA:48,18
DA:48,0
DA:65,18
end_of_record
SF:/home/giangnguyentbk/workspace/itc-platform/sw/itc-common/src/itcTransportLSocket.cc
FN:42,_ZN11ItcPlatform8INTERNAL19ItcTransportLSocket11getInstanceEv
FNDA:18,_ZN11ItcPlatform8INTERNAL19ItcTransportLSocket11getInstanceEv
FN:52,_ZN11ItcPlatform8INTERNAL19ItcTransportLSocket10initialiseEjjj
FNDA:8,_ZN11ItcPlatform8INTERNAL19ItcTransportLSocket10initialiseEjjj
FN:120,_ZN11ItcPlatform8INTERNAL19ItcTransportLSocket7releaseEv
FNDA:4,_ZN11ItcPlatform8INTERNAL19ItcTransportLSocket7releaseEv
FN:145,_ZN11ItcPlatform8INTERNAL19ItcTransportLSocket15locateItcServerEPjS2_
FNDA:6,_ZN11ItcPlatform8INTERNAL19ItcTransportLSocket15locateItcServerEPjS2_
FN:216,_ZN11ItcPlatform8INTERNAL19ItcTransportLSocket13createMailboxEPNS0_10ItcMailboxE
FNDA:0,_ZN11ItcPlatform8INTERNAL19ItcTransportLSocket13createMailboxEPNS0_10ItcMailboxE
FN:224,_ZN11ItcPlatform8INTERNAL19ItcTransportLSocket13deleteMailboxEPNS0_10ItcMailboxE
FNDA:0,_ZN11ItcPlatform8INTERNAL19ItcTransportLSocket13deleteMailboxEPNS0_10ItcMailboxE
FN:232,_ZN11ItcPlatform8INTERNAL19ItcTransportLSocket11sendMessageEPNS0_15ItcAdminMessageERKNS_8PROVIDED18MailboxContactInfoE
FNDA:0,_ZN11ItcPlatform8INTERNAL19ItcTransportLSocket11sendMessageEPNS0_15ItcAdminMessageERKNS_8PROVIDED18MailboxContactInfoE
FN:240,_ZN11ItcPlatform8INTERNAL19ItcTransportLSocket14receiveMessageEPNS0_10ItcMailboxE
FNDA:0,_ZN11ItcPlatform8INTERNAL19ItcTransportLSocket14receiveMessageEPNS0_10ItcMailboxE
FN:248,_ZN11ItcPlatform8INTERNAL19ItcTransportLSocket17getMaxMessageSizeEv
FNDA:0,_ZN11ItcPlatform8INTERNAL19ItcTransportLSocket17getMaxMessageSizeEv
FN:260,_ZN11ItcPlatform8INTERNAL19ItcTransportLSocket15createLSockPathEv
FNDA:0,_ZN11ItcPlatform8INTERNAL19ItcTransportLSocket15createLSockPathEv
DA:42,18
DA:44,18
DA:45,18
DA:47,18
DA:49,36
DA:50,18
DA:52,8
DA:54,8
DA:55,7
DA:56,14
DA:57,7
DA:61,7
DA:63,28
DA:64,7
DA:68,6
DA:71,6
DA:72,6
DA:73,1
DA:74,1
DA:75,1
DA:78,5
DA:79,5
DA:80,5
DA:81,5
DA:87,5
DA:88,5
DA:89,1
DA:90,1
DA:91,1
DA:94,4
DA:95,4
DA:96,4
DA:102,4
DA:103,4
DA:105,4
DA:106,1
DA:107,1
DA:108,1
DA:109,3
DA:110,2
DA:111,2
DA:114,1
DA:115,1
DA:116,7
DA:120,4
DA:122,4
DA:124,6
DA:125,3
DA:126,1
DA:127,1
DA:128,1
DA:131,6
DA:132,2
DA:138,1
DA:139,1
DA:140,1
DA:145,6
DA:147,12
DA:148,6
DA:153,6
DA:154,6
DA:155,1
DA:156,1
DA:157,1
DA:160,5
DA:161,5
DA:162,5
DA:163,5
DA:165,5
DA:166,5
DA:167,1
DA:168,1
DA:169,1
DA:172,4
DA:173,4
DA:174,4
DA:176,4
DA:177,4
DA:178,1
DA:179,1
DA:180,1
DA:183,3
DA:184,3
DA:185,3
DA:186,3
DA:187,1
DA:188,1
DA:189,1
DA:192,2
DA:195,2
DA:196,1
DA:197,1
DA:198,1
DA:199,1
DA:201,1
DA:202,1
DA:203,1
DA:205,1
DA:206,1
DA:207,1
DA:209,1
DA:210,1
DA:213,1
DA:214,6
DA:216,0
DA:221,0
DA:224,0
DA:229,0
DA:232,0
DA:237,0
DA:240,0
DA:245,0
DA:248,0
DA:253,0
DA:260,0
DA:262,0
DA:263,0
DA:264,0
DA:265,0
DA:266,0
DA:272,0
DA:273,0
DA:274,0
DA:275,0
DA:276,0
DA:279,0
DA:280,0
end_of_record
SF:/home/giangnguyentbk/workspace/itc-platform/sw/itc-common/if/itcTransportIf.h
DA:100,18
DA:101,18
end_of_record
TN:
SF:/home/giangnguyentbk/workspace/itc-platform/sw/itc-common/inc/itcTransportLocal.h
FN:52,_ZN11ItcPlatform8INTERNAL17ItcTransportLocalD0Ev
FNDA:18,_ZN11ItcPlatform8INTERNAL17ItcTransportLocalD0Ev
FN:52,_ZN11ItcPlatform8INTERNAL17ItcTransportLocalD2Ev
FNDA:0,_ZN11ItcPlatform8INTERNAL17ItcTransportLocalD2Ev
DA:37,16
DA:38,16
DA:39,16
DA:40,16
DA:42,33
DA:52,18
DA:52,0
DA:69,18
end_of_record
SF:/home/giangnguyentbk/workspace/itc-platform/sw/itc-common/if/itcTransportIf.h
DA:100,18
DA:101,18
end_of_record
SF:/home/giangnguyentbk/workspace/itc-platform/sw/itc-common/src/itcTransportLocal.cc
FN:33,_ZN11ItcPlatform8INTERNAL17ItcTransportLocal11getInstanceEv
FNDA:18,_ZN11ItcPlatform8INTERNAL17ItcTransportLocal11getInstanceEv
FN:43,_ZN11ItcPlatform8INTERNAL17ItcTransportLocal10initialiseEjjj
FNDA:3,_ZN11ItcPlatform8INTERNAL17ItcTransportLocal10initialiseEjjj
FN:68,_ZN11ItcPlatform8INTERNAL17ItcTransportLocal7releaseEv
FNDA:2,_ZN11ItcPlatform8INTERNAL17ItcTransportLocal7releaseEv
FN:89,_ZN11ItcPlatform8INTERNAL17ItcTransportLocal15locateItcServerEPjS2_
FNDA:0,_ZN11ItcPlatform8INTERNAL17ItcTransportLocal15locateItcServerEPjS2_
FN:98,_ZN11ItcPlatform8INTERNAL17ItcTransportLocal13createMailboxEPNS0_10ItcMailboxE
FNDA:2,_ZN11ItcPlatform8INTERNAL17ItcTransportLocal13createMailboxEPNS0_10ItcMailboxE
FN:118,_ZN11ItcPlatform8INTERNAL17ItcTransportLocal13deleteMailboxEPNS0_10ItcMailboxE
FNDA:2,_ZN11ItcPlatform8INTERNAL17ItcTransportLocal13deleteMailboxEPNS0_10ItcMailboxE
FN:136,_ZN11ItcPlatform8INTERNAL17ItcTransportLocal11sendMessageEPNS0_15ItcAdminMessageERKNS_8PROVIDED18MailboxContactInfoE
FNDA:2,_ZN11ItcPlatform8INTERNAL17ItcTransportLocal11sendMessageEPNS0_15ItcAdminMessageERKNS_8PROVIDED18MailboxContactInfoE
FN:154,_ZN11ItcPlatform8INTERNAL17ItcTransportLocal14receiveMessageEPNS0_10ItcMailboxE
FNDA:2,_ZN11ItcPlatform8INTERNAL17ItcTransportLocal14receiveMessageEPNS0_10ItcMailboxE
FN:173,_ZN11ItcPlatform8INTERNAL17ItcTransportLocal17getMaxMessageSizeEv
FNDA:0,_ZN11ItcPlatform8INTERNAL17ItcTransportLocal17getMaxMessageSizeEv
FN:181,_ZN11ItcPlatform8INTERNAL17ItcTransportLocal15releaseUnitInfoEl
FNDA:3,_ZN11ItcPlatform8INTERNAL17ItcTransportLocal15releaseUnitInfoEl
FN:205,_ZN11ItcPlatform8INTERNAL17ItcTransportLocal16getUnitInfoIndexEj
FNDA:4,_ZN11ItcPlatform8INTERNAL17ItcTransportLocal16getUnitInfoIndexEj
DA:33,18
DA:35,18
DA:36,18
DA:38,18
DA:40,36
DA:41,18
DA:43,3
DA:45,3
DA:46,2
DA:47,2
DA:48,1
DA:49,1
DA:50,2
DA:52,1
DA:54,1
DA:55,1
DA:56,1
DA:57,1
DA:58,1
DA:62,2
DA:63,2
DA:64,2
DA:65,2
DA:68,2
DA:70,2
DA:71,5
DA:73,3
DA:75,3
DA:78,2
DA:79,1
DA:81,1
DA:82,1
DA:85,1
DA:86,1
DA:89,0
DA:95,0
DA:98,2
DA:100,4
DA:101,2
DA:102,0
DA:103,0
DA:106,2
DA:107,1
DA:108,1
DA:109,1
DA:112,1
DA:113,1
DA:114,1
DA:115,1
DA:118,2
DA:120,4
DA:121,2
DA:122,0
DA:123,0
DA:126,2
DA:127,1
DA:128,1
DA:129,1
DA:132,1
DA:133,1
DA:136,2
DA:138,4
DA:139,2
DA:140,0
DA:141,0
DA:144,2
DA:145,1
DA:146,1
DA:147,1
DA:150,1
DA:151,1
DA:154,2
DA:156,4
DA:157,2
DA:158,0
DA:159,0
DA:162,2
DA:163,1
DA:164,1
DA:165,1
DA:168,1
DA:169,1
DA:170,1
DA:173,0
DA:178,0
DA:181,3
DA:183,3
DA:187,3
DA:188,3
DA:189,3
DA:191,2
DA:192,2
DA:193,4
DA:197,7
DA:200,3
DA:201,3
DA:202,3
DA:205,12
DA:207,12
DA:208,1
DA:209,1
DA:210,1
DA:213,11
DA:214,1
DA:215,1
DA:216,1
DA:219,10
DA:220,1
DA:221,1
DA:222,1
DA:225,9
end_of_record
